target datalayout = "e-m:e-p270:32:32-p271:32:32-p272:64:64-i64:64-i128:128-f80:128-n8:16:32:64-S128"
target triple = "x86_64-pc-linux-gnu"

%struct.expert_field = type { i32, i32 }
%struct.mac_nr_info = type { i8, i8, i8, i16, i16, i8, i8, i32, i16, i16, i16 }
%struct._packet_info = type { ptr, ptr, i32, i32, %struct.nstime_t, %struct.nstime_t, %struct.nstime_t, i32, ptr, ptr, ptr, ptr, %struct._address, %struct._address, %struct._address, %struct._address, %struct._address, %struct._address, i32, ptr, i32, %struct.anon, i32, i32, i32, i32, ptr, i32, ptr, ptr, i16, i16, i32, i32, i16, i32, i32, ptr, ptr, ptr, i8, i8, i16, i16, i16, i32, i16, i16, ptr, ptr, ptr, ptr, ptr, i32 }
%struct.nstime_t = type { i64, i32 }
%struct._address = type { i32, i32, ptr, ptr }
%struct.anon = type { i8, [3 x i8] }

@.str = private unnamed_addr constant [7 x i8] c"MAC-NR\00", align 1
@proto_mac_nr = hidden global i32 0, align 4
@ett_mac_nr = internal global i32 0, align 4
@ei_mac_nr_unknown_udp_framing_tag = internal global %struct.expert_field zeroinitializer, align 4

; Function Attrs: nounwind uwtable
define hidden i32 @dissect_mac_nr_context_fields(ptr noundef %0, ptr noundef %1, ptr noundef %2, ptr noundef %3, ptr noundef %4) #0 {
  %6 = alloca i32, align 4
  %7 = alloca ptr, align 8
  %8 = alloca ptr, align 8
  %9 = alloca ptr, align 8
  %10 = alloca ptr, align 8
  %11 = alloca ptr, align 8
  %12 = alloca i32, align 4
  %13 = alloca i8, align 1
  %14 = alloca ptr, align 8
  %15 = alloca ptr, align 8
  store ptr %0, ptr %7, align 8
  store ptr %1, ptr %8, align 8
  store ptr %2, ptr %9, align 8
  store ptr %3, ptr %10, align 8
  store ptr %4, ptr %11, align 8
  %16 = load ptr, ptr %11, align 8
  %17 = load i32, ptr %16, align 4
  store i32 %17, ptr %12, align 4
  store i8 0, ptr %13, align 1
  %18 = load ptr, ptr %8, align 8
  %19 = load i32, ptr %12, align 4
  %20 = add i32 %19, 1
  store i32 %20, ptr %12, align 4
  %21 = call zeroext i8 @tvb_get_guint8(ptr noundef %18, i32 noundef %19)
  %22 = load ptr, ptr %7, align 8
  %23 = getelementptr inbounds %struct.mac_nr_info, ptr %22, i32 0, i32 0
  store i8 %21, ptr %23, align 4
  %24 = load ptr, ptr %8, align 8
  %25 = load i32, ptr %12, align 4
  %26 = add i32 %25, 1
  store i32 %26, ptr %12, align 4
  %27 = call zeroext i8 @tvb_get_guint8(ptr noundef %24, i32 noundef %25)
  %28 = load ptr, ptr %7, align 8
  %29 = getelementptr inbounds %struct.mac_nr_info, ptr %28, i32 0, i32 1
  store i8 %27, ptr %29, align 1
  %30 = load ptr, ptr %8, align 8
  %31 = load i32, ptr %12, align 4
  %32 = add i32 %31, 1
  store i32 %32, ptr %12, align 4
  %33 = call zeroext i8 @tvb_get_guint8(ptr noundef %30, i32 noundef %31)
  %34 = load ptr, ptr %7, align 8
  %35 = getelementptr inbounds %struct.mac_nr_info, ptr %34, i32 0, i32 2
  store i8 %33, ptr %35, align 2
  br label %36

36:                                               ; preds = %127, %5
  %37 = load ptr, ptr %8, align 8
  %38 = load i32, ptr %12, align 4
  %39 = add i32 %38, 1
  store i32 %39, ptr %12, align 4
  %40 = call zeroext i8 @tvb_get_guint8(ptr noundef %37, i32 noundef %38)
  store i8 %40, ptr %13, align 1
  %41 = load i8, ptr %13, align 1
  %42 = zext i8 %41 to i32
  switch i32 %42, label %101 [
    i32 2, label %43
    i32 3, label %51
    i32 6, label %59
    i32 4, label %67
    i32 5, label %70
    i32 7, label %78
    i32 1, label %94
  ]

43:                                               ; preds = %36
  %44 = load ptr, ptr %8, align 8
  %45 = load i32, ptr %12, align 4
  %46 = call zeroext i16 @tvb_get_ntohs(ptr noundef %44, i32 noundef %45)
  %47 = load ptr, ptr %7, align 8
  %48 = getelementptr inbounds %struct.mac_nr_info, ptr %47, i32 0, i32 3
  store i16 %46, ptr %48, align 4
  %49 = load i32, ptr %12, align 4
  %50 = add i32 %49, 2
  store i32 %50, ptr %12, align 4
  br label %126

51:                                               ; preds = %36
  %52 = load ptr, ptr %8, align 8
  %53 = load i32, ptr %12, align 4
  %54 = call zeroext i16 @tvb_get_ntohs(ptr noundef %52, i32 noundef %53)
  %55 = load ptr, ptr %7, align 8
  %56 = getelementptr inbounds %struct.mac_nr_info, ptr %55, i32 0, i32 4
  store i16 %54, ptr %56, align 2
  %57 = load i32, ptr %12, align 4
  %58 = add i32 %57, 2
  store i32 %58, ptr %12, align 4
  br label %126

59:                                               ; preds = %36
  %60 = load ptr, ptr %8, align 8
  %61 = load i32, ptr %12, align 4
  %62 = call zeroext i8 @tvb_get_guint8(ptr noundef %60, i32 noundef %61)
  %63 = load ptr, ptr %7, align 8
  %64 = getelementptr inbounds %struct.mac_nr_info, ptr %63, i32 0, i32 5
  store i8 %62, ptr %64, align 4
  %65 = load i32, ptr %12, align 4
  %66 = add i32 %65, 1
  store i32 %66, ptr %12, align 4
  br label %126

67:                                               ; preds = %36
  %68 = load i32, ptr %12, align 4
  %69 = add i32 %68, 2
  store i32 %69, ptr %12, align 4
  br label %126

70:                                               ; preds = %36
  %71 = load ptr, ptr %8, align 8
  %72 = load i32, ptr %12, align 4
  %73 = call zeroext i8 @tvb_get_guint8(ptr noundef %71, i32 noundef %72)
  %74 = load ptr, ptr %7, align 8
  %75 = getelementptr inbounds %struct.mac_nr_info, ptr %74, i32 0, i32 6
  store i8 %73, ptr %75, align 1
  %76 = load i32, ptr %12, align 4
  %77 = add i32 %76, 1
  store i32 %77, ptr %12, align 4
  br label %126

78:                                               ; preds = %36
  %79 = load ptr, ptr %7, align 8
  %80 = getelementptr inbounds %struct.mac_nr_info, ptr %79, i32 0, i32 7
  store i32 1, ptr %80, align 4
  %81 = load ptr, ptr %8, align 8
  %82 = load i32, ptr %12, align 4
  %83 = call zeroext i16 @tvb_get_ntohs(ptr noundef %81, i32 noundef %82)
  %84 = load ptr, ptr %7, align 8
  %85 = getelementptr inbounds %struct.mac_nr_info, ptr %84, i32 0, i32 8
  store i16 %83, ptr %85, align 4
  %86 = load ptr, ptr %8, align 8
  %87 = load i32, ptr %12, align 4
  %88 = add i32 %87, 2
  %89 = call zeroext i16 @tvb_get_ntohs(ptr noundef %86, i32 noundef %88)
  %90 = load ptr, ptr %7, align 8
  %91 = getelementptr inbounds %struct.mac_nr_info, ptr %90, i32 0, i32 9
  store i16 %89, ptr %91, align 2
  %92 = load i32, ptr %12, align 4
  %93 = add i32 %92, 4
  store i32 %93, ptr %12, align 4
  br label %126

94:                                               ; preds = %36
  %95 = load ptr, ptr %8, align 8
  %96 = load i32, ptr %12, align 4
  %97 = call i32 @tvb_reported_length_remaining(ptr noundef %95, i32 noundef %96)
  %98 = trunc i32 %97 to i16
  %99 = load ptr, ptr %7, align 8
  %100 = getelementptr inbounds %struct.mac_nr_info, ptr %99, i32 0, i32 10
  store i16 %98, ptr %100, align 4
  br label %127

101:                                              ; preds = %36
  %102 = load ptr, ptr %9, align 8
  %103 = getelementptr inbounds %struct._packet_info, ptr %102, i32 0, i32 1
  %104 = load ptr, ptr %103, align 8
  call void @col_set_str(ptr noundef %104, i32 noundef 34, ptr noundef @.str)
  %105 = load ptr, ptr %9, align 8
  %106 = getelementptr inbounds %struct._packet_info, ptr %105, i32 0, i32 1
  %107 = load ptr, ptr %106, align 8
  call void @col_clear(ptr noundef %107, i32 noundef 25)
  %108 = load ptr, ptr %10, align 8
  %109 = load i32, ptr @proto_mac_nr, align 4
  %110 = load ptr, ptr %8, align 8
  %111 = load i32, ptr %12, align 4
  %112 = load ptr, ptr %8, align 8
  %113 = call i32 @tvb_reported_length(ptr noundef %112)
  %114 = call ptr @proto_tree_add_item(ptr noundef %108, i32 noundef %109, ptr noundef %110, i32 noundef %111, i32 noundef %113, i32 noundef 0)
  store ptr %114, ptr %14, align 8
  %115 = load ptr, ptr %14, align 8
  %116 = load i32, ptr @ett_mac_nr, align 4
  %117 = call ptr @proto_item_add_subtree(ptr noundef %115, i32 noundef %116)
  store ptr %117, ptr %15, align 8
  %118 = load ptr, ptr %15, align 8
  %119 = load ptr, ptr %9, align 8
  %120 = load ptr, ptr %8, align 8
  %121 = load i32, ptr %12, align 4
  %122 = sub i32 %121, 1
  %123 = call ptr @proto_tree_add_expert(ptr noundef %118, ptr noundef %119, ptr noundef @ei_mac_nr_unknown_udp_framing_tag, ptr noundef %120, i32 noundef %122, i32 noundef 1)
  %124 = call ptr @wmem_file_scope()
  %125 = load ptr, ptr %7, align 8
  call void @wmem_free(ptr noundef %124, ptr noundef %125)
  store i32 1, ptr %6, align 4
  br label %134

126:                                              ; preds = %78, %70, %67, %59, %51, %43
  br label %127

127:                                              ; preds = %126, %94
  %128 = load i8, ptr %13, align 1
  %129 = zext i8 %128 to i32
  %130 = icmp ne i32 %129, 1
  br i1 %130, label %36, label %131, !llvm.loop !4

131:                                              ; preds = %127
  %132 = load i32, ptr %12, align 4
  %133 = load ptr, ptr %11, align 8
  store i32 %132, ptr %133, align 4
  store i32 1, ptr %6, align 4
  br label %134

134:                                              ; preds = %131, %101
  %135 = load i32, ptr %6, align 4
  ret i32 %135
}