; Function Attrs: nounwind uwtable
define hidden noundef i32 @dissect_mac_nr_context_fields(ptr noundef initializes((0, 3)) %0, ptr noundef %1, ptr noundef %2, ptr noundef %3, ptr noundef captures(none) %4) local_unnamed_addr #0 {
  %6 = load i32, ptr %4, align 4
  %7 = add i32 %6, 1
  %8 = tail call zeroext i8 @tvb_get_guint8(ptr noundef %1, i32 noundef %6) #12
  store i8 %8, ptr %0, align 4
  %9 = add i32 %6, 2
  %10 = tail call zeroext i8 @tvb_get_guint8(ptr noundef %1, i32 noundef %7) #12
  %11 = getelementptr inbounds nuw i8, ptr %0, i64 1
  store i8 %10, ptr %11, align 1
  %12 = add i32 %6, 3
  %13 = tail call zeroext i8 @tvb_get_guint8(ptr noundef %1, i32 noundef %9) #12
  %14 = getelementptr inbounds nuw i8, ptr %0, i64 2
  store i8 %13, ptr %14, align 2
  %15 = getelementptr inbounds nuw i8, ptr %0, i64 12
  %16 = getelementptr inbounds nuw i8, ptr %0, i64 16
  %17 = getelementptr inbounds nuw i8, ptr %0, i64 18
  %18 = getelementptr inbounds nuw i8, ptr %0, i64 9
  %19 = getelementptr inbounds nuw i8, ptr %0, i64 8
  %20 = getelementptr inbounds nuw i8, ptr %0, i64 6
  %21 = getelementptr inbounds nuw i8, ptr %0, i64 4
  br label %22

22:                                               ; preds = %48, %5
  %.056 = phi i32 [ %12, %5 ], [ %49, %48 ]
  %23 = add i32 %.056, 1
  %24 = tail call zeroext i8 @tvb_get_guint8(ptr noundef %1, i32 noundef %.056) #12
  switch i8 %24, label %37 [
    i8 2, label %25
    i8 3, label %27
    i8 6, label %29
    i8 4, label %48
    i8 5, label %31
    i8 7, label %33
    i8 1, label %50
  ]

25:                                               ; preds = %22
  %26 = tail call zeroext i16 @tvb_get_ntohs(ptr noundef %1, i32 noundef %23) #12
  store i16 %26, ptr %21, align 4
  br label %48

27:                                               ; preds = %22
  %28 = tail call zeroext i16 @tvb_get_ntohs(ptr noundef %1, i32 noundef %23) #12
  store i16 %28, ptr %20, align 2
  br label %48

29:                                               ; preds = %22
  %30 = tail call zeroext i8 @tvb_get_guint8(ptr noundef %1, i32 noundef %23) #12
  store i8 %30, ptr %19, align 4
  br label %48

31:                                               ; preds = %22
  %32 = tail call zeroext i8 @tvb_get_guint8(ptr noundef %1, i32 noundef %23) #12
  store i8 %32, ptr %18, align 1
  br label %48

33:                                               ; preds = %22
  store i32 1, ptr %15, align 4
  %34 = tail call zeroext i16 @tvb_get_ntohs(ptr noundef %1, i32 noundef %23) #12
  store i16 %34, ptr %16, align 4
  %35 = add i32 %.056, 3
  %36 = tail call zeroext i16 @tvb_get_ntohs(ptr noundef %1, i32 noundef %35) #12
  store i16 %36, ptr %17, align 2
  br label %48

37:                                               ; preds = %22
  %38 = getelementptr inbounds nuw i8, ptr %2, i64 8
  %39 = load ptr, ptr %38, align 8
  tail call void @col_set_str(ptr noundef %39, i32 noundef 34, ptr noundef nonnull @.str) #12
  %40 = load ptr, ptr %38, align 8
  tail call void @col_clear(ptr noundef %40, i32 noundef 25) #12
  %41 = load i32, ptr @proto_mac_nr, align 4
  %42 = tail call i32 @tvb_reported_length(ptr noundef %1) #12
  %43 = tail call ptr @proto_tree_add_item(ptr noundef %3, i32 noundef %41, ptr noundef %1, i32 noundef %23, i32 noundef %42, i32 noundef 0) #12
  %44 = load i32, ptr @ett_mac_nr, align 4
  %45 = tail call ptr @proto_item_add_subtree(ptr noundef %43, i32 noundef %44) #12
  %46 = tail call ptr @proto_tree_add_expert(ptr noundef %45, ptr noundef %2, ptr noundef nonnull @ei_mac_nr_unknown_udp_framing_tag, ptr noundef %1, i32 noundef %.056, i32 noundef 1) #12
  %47 = tail call ptr @wmem_file_scope() #12
  tail call void @wmem_free(ptr noundef %47, ptr noundef nonnull %0) #12
  br label %54

48:                                               ; preds = %22, %25, %27, %29, %31, %33
  %.sink = phi i32 [ 3, %25 ], [ 3, %27 ], [ 2, %29 ], [ 2, %31 ], [ 5, %33 ], [ 3, %22 ]
  %49 = add i32 %.056, %.sink
  br label %22, !llvm.loop !4

50:                                               ; preds = %22
  %51 = tail call i32 @tvb_reported_length_remaining(ptr noundef %1, i32 noundef %23) #12
  %52 = trunc i32 %51 to i16
  %53 = getelementptr inbounds nuw i8, ptr %0, i64 20
  store i16 %52, ptr %53, align 4
  store i32 %23, ptr %4, align 4
  br label %54

54:                                               ; preds = %50, %37
  ret i32 1
}